target datalayout = "e-m:e-p270:32:32-p271:32:32-p272:64:64-i64:64-i128:128-f80:128-n8:16:32:64-S128"
target triple = "x86_64-pc-linux-gnu"

%struct.JsonLexContext = type { ptr, i64, i32, ptr, ptr, ptr, i8, i32, i32, i32, i32, ptr, ptr, ptr, i8, ptr, ptr }

@.str.52 = private unnamed_addr constant [4 x i8] c"...\00", align 1
@.str.53 = private unnamed_addr constant [1 x i8] zeroinitializer, align 1
@.str.54 = private unnamed_addr constant [27 x i8] c"JSON data, line %d: %s%s%s\00", align 1

; Function Attrs: nounwind uwtable
define internal i32 @report_json_context(ptr noundef %0) #0 {
  %2 = alloca ptr, align 8
  %3 = alloca ptr, align 8
  %4 = alloca ptr, align 8
  %5 = alloca ptr, align 8
  %6 = alloca ptr, align 8
  %7 = alloca i32, align 4
  %8 = alloca ptr, align 8
  %9 = alloca ptr, align 8
  store ptr %0, ptr %2, align 8
  call void @llvm.lifetime.start.p0(i64 8, ptr %3) #10
  call void @llvm.lifetime.start.p0(i64 8, ptr %4) #10
  call void @llvm.lifetime.start.p0(i64 8, ptr %5) #10
  call void @llvm.lifetime.start.p0(i64 8, ptr %6) #10
  call void @llvm.lifetime.start.p0(i64 4, ptr %7) #10
  call void @llvm.lifetime.start.p0(i64 8, ptr %8) #10
  call void @llvm.lifetime.start.p0(i64 8, ptr %9) #10
  %10 = load ptr, ptr %2, align 8
  %11 = getelementptr inbounds nuw %struct.JsonLexContext, ptr %10, i32 0, i32 11
  %12 = load ptr, ptr %11, align 8
  store ptr %12, ptr %5, align 8
  %13 = load ptr, ptr %5, align 8
  store ptr %13, ptr %3, align 8
  %14 = load ptr, ptr %2, align 8
  %15 = getelementptr inbounds nuw %struct.JsonLexContext, ptr %14, i32 0, i32 4
  %16 = load ptr, ptr %15, align 8
  store ptr %16, ptr %4, align 8
  br label %17

17:                                               ; preds = %39, %1
  %18 = load ptr, ptr %4, align 8
  %19 = load ptr, ptr %3, align 8
  %20 = ptrtoint ptr %18 to i64
  %21 = ptrtoint ptr %19 to i64
  %22 = sub i64 %20, %21
  %23 = icmp sge i64 %22, 50
  br i1 %23, label %24, label %40

24:                                               ; preds = %17
  %25 = load ptr, ptr %3, align 8
  %26 = load i8, ptr %25, align 1
  %27 = zext i8 %26 to i32
  %28 = and i32 %27, 128
  %29 = icmp ne i32 %28, 0
  br i1 %29, label %30, label %36

30:                                               ; preds = %24
  %31 = load ptr, ptr %3, align 8
  %32 = call i32 @pg_mblen(ptr noundef %31)
  %33 = load ptr, ptr %3, align 8
  %34 = sext i32 %32 to i64
  %35 = getelementptr inbounds i8, ptr %33, i64 %34
  store ptr %35, ptr %3, align 8
  br label %39

36:                                               ; preds = %24
  %37 = load ptr, ptr %3, align 8
  %38 = getelementptr inbounds nuw i8, ptr %37, i32 1
  store ptr %38, ptr %3, align 8
  br label %39

39:                                               ; preds = %36, %30
  br label %17, !llvm.loop !8

40:                                               ; preds = %17
  %41 = load ptr, ptr %3, align 8
  %42 = load ptr, ptr %5, align 8
  %43 = ptrtoint ptr %41 to i64
  %44 = ptrtoint ptr %42 to i64
  %45 = sub i64 %43, %44
  %46 = icmp sle i64 %45, 3
  br i1 %46, label %47, label %49

47:                                               ; preds = %40
  %48 = load ptr, ptr %5, align 8
  store ptr %48, ptr %3, align 8
  br label %49

49:                                               ; preds = %47, %40
  %50 = load ptr, ptr %4, align 8
  %51 = load ptr, ptr %3, align 8
  %52 = ptrtoint ptr %50 to i64
  %53 = ptrtoint ptr %51 to i64
  %54 = sub i64 %52, %53
  %55 = trunc i64 %54 to i32
  store i32 %55, ptr %7, align 4
  %56 = load i32, ptr %7, align 4
  %57 = add i32 %56, 1
  %58 = sext i32 %57 to i64
  %59 = call ptr @palloc(i64 noundef %58)
  store ptr %59, ptr %6, align 8
  %60 = load ptr, ptr %6, align 8
  %61 = load ptr, ptr %3, align 8
  %62 = load i32, ptr %7, align 4
  %63 = sext i32 %62 to i64
  call void @llvm.memcpy.p0.p0.i64(ptr align 1 %60, ptr align 1 %61, i64 %63, i1 false)
  %64 = load ptr, ptr %6, align 8
  %65 = load i32, ptr %7, align 4
  %66 = sext i32 %65 to i64
  %67 = getelementptr inbounds i8, ptr %64, i64 %66
  store i8 0, ptr %67, align 1
  %68 = load ptr, ptr %3, align 8
  %69 = load ptr, ptr %5, align 8
  %70 = icmp ugt ptr %68, %69
  %71 = select i1 %70, ptr @.str.52, ptr @.str.53
  store ptr %71, ptr %8, align 8
  %72 = load ptr, ptr %2, align 8
  %73 = getelementptr inbounds nuw %struct.JsonLexContext, ptr %72, i32 0, i32 7
  %74 = load i32, ptr %73, align 4
  %75 = icmp ne i32 %74, 12
  br i1 %75, label %76, label %98

76:                                               ; preds = %49
  %77 = load ptr, ptr %4, align 8
  %78 = load ptr, ptr %2, align 8
  %79 = getelementptr inbounds nuw %struct.JsonLexContext, ptr %78, i32 0, i32 0
  %80 = load ptr, ptr %79, align 8
  %81 = ptrtoint ptr %77 to i64
  %82 = ptrtoint ptr %80 to i64
  %83 = sub i64 %81, %82
  %84 = load ptr, ptr %2, align 8
  %85 = getelementptr inbounds nuw %struct.JsonLexContext, ptr %84, i32 0, i32 1
  %86 = load i64, ptr %85, align 8
  %87 = icmp ult i64 %83, %86
  br i1 %87, label %88, label %98

88:                                               ; preds = %76
  %89 = load ptr, ptr %4, align 8
  %90 = load i8, ptr %89, align 1
  %91 = sext i8 %90 to i32
  %92 = icmp ne i32 %91, 10
  br i1 %92, label %93, label %98

93:                                               ; preds = %88
  %94 = load ptr, ptr %4, align 8
  %95 = load i8, ptr %94, align 1
  %96 = sext i8 %95 to i32
  %97 = icmp ne i32 %96, 13
  br label %98

98:                                               ; preds = %93, %88, %76, %49
  %99 = phi i1 [ false, %88 ], [ false, %76 ], [ false, %49 ], [ %97, %93 ]
  %100 = select i1 %99, ptr @.str.52, ptr @.str.53
  store ptr %100, ptr %9, align 8
  %101 = call i32 @set_errcontext_domain(ptr noundef null)
  %102 = load ptr, ptr %2, align 8
  %103 = getelementptr inbounds nuw %struct.JsonLexContext, ptr %102, i32 0, i32 10
  %104 = load i32, ptr %103, align 8
  %105 = load ptr, ptr %8, align 8
  %106 = load ptr, ptr %6, align 8
  %107 = load ptr, ptr %9, align 8
  %108 = call i32 (ptr, ...) @errcontext_msg(ptr noundef @.str.54, i32 noundef %104, ptr noundef %105, ptr noundef %106, ptr noundef %107)
  call void @llvm.lifetime.end.p0(i64 8, ptr %9) #10
  call void @llvm.lifetime.end.p0(i64 8, ptr %8) #10
  call void @llvm.lifetime.end.p0(i64 4, ptr %7) #10
  call void @llvm.lifetime.end.p0(i64 8, ptr %6) #10
  call void @llvm.lifetime.end.p0(i64 8, ptr %5) #10
  call void @llvm.lifetime.end.p0(i64 8, ptr %4) #10
  call void @llvm.lifetime.end.p0(i64 8, ptr %3) #10
  ret i32 %108
}