; Function Attrs: nounwind uwtable
define internal fastcc void @report_json_context(ptr noundef readonly captures(none) %0) unnamed_addr #0 {
  %2 = getelementptr inbounds nuw i8, ptr %0, i64 72
  %3 = load ptr, ptr %2, align 8
  %4 = getelementptr inbounds nuw i8, ptr %0, i64 32
  %5 = load ptr, ptr %4, align 8
  %6 = ptrtoint ptr %5 to i64
  %7 = ptrtoint ptr %3 to i64
  %8 = sub i64 %6, %7
  %9 = icmp sgt i64 %8, 49
  br i1 %9, label %.lr.ph, label %._crit_edge

.lr.ph:                                           ; preds = %1, %14
  %.037 = phi ptr [ %15, %14 ], [ %3, %1 ]
  %10 = load i8, ptr %.037, align 1
  %.not35 = icmp sgt i8 %10, -1
  br i1 %.not35, label %14, label %11

11:                                               ; preds = %.lr.ph
  %12 = tail call i32 @pg_mblen(ptr noundef nonnull %.037) #15
  %13 = sext i32 %12 to i64
  br label %14

14:                                               ; preds = %.lr.ph, %11
  %.sink = phi i64 [ %13, %11 ], [ 1, %.lr.ph ]
  %15 = getelementptr inbounds i8, ptr %.037, i64 %.sink
  %16 = ptrtoint ptr %15 to i64
  %17 = sub i64 %6, %16
  %18 = icmp sgt i64 %17, 49
  br i1 %18, label %.lr.ph, label %._crit_edge, !llvm.loop !8

._crit_edge:                                      ; preds = %14, %1
  %.0.lcssa = phi ptr [ %3, %1 ], [ %15, %14 ]
  %.lcssa = phi i64 [ %7, %1 ], [ %16, %14 ]
  %19 = sub i64 %.lcssa, %7
  %20 = icmp slt i64 %19, 4
  %spec.select = select i1 %20, ptr %3, ptr %.0.lcssa
  %21 = ptrtoint ptr %spec.select to i64
  %22 = sub i64 %6, %21
  %23 = shl i64 %22, 32
  %sext = add i64 %23, 4294967296
  %24 = ashr exact i64 %sext, 32
  %25 = tail call ptr @palloc(i64 noundef %24) #15
  %26 = ashr exact i64 %23, 32
  tail call void @llvm.memcpy.p0.p0.i64(ptr align 1 %25, ptr align 1 %spec.select, i64 %26, i1 false)
  %27 = getelementptr inbounds i8, ptr %25, i64 %26
  store i8 0, ptr %27, align 1
  %28 = getelementptr inbounds nuw i8, ptr %0, i64 52
  %29 = load i32, ptr %28, align 4
  %.not = icmp eq i32 %29, 12
  br i1 %.not, label %41, label %30

30:                                               ; preds = %._crit_edge
  %31 = load ptr, ptr %0, align 8
  %32 = ptrtoint ptr %31 to i64
  %33 = sub i64 %6, %32
  %34 = getelementptr inbounds nuw i8, ptr %0, i64 8
  %35 = load i64, ptr %34, align 8
  %36 = icmp ult i64 %33, %35
  br i1 %36, label %37, label %41

37:                                               ; preds = %30
  %38 = load i8, ptr %5, align 1
  %.not33 = icmp eq i8 %38, 10
  br i1 %.not33, label %41, label %39

39:                                               ; preds = %37
  %.not34 = icmp eq i8 %38, 13
  %40 = select i1 %.not34, ptr @.str.53, ptr @.str.52
  br label %41

41:                                               ; preds = %39, %37, %30, %._crit_edge
  %42 = phi ptr [ @.str.53, %37 ], [ @.str.53, %30 ], [ @.str.53, %._crit_edge ], [ %40, %39 ]
  %43 = icmp ugt ptr %spec.select, %3
  %44 = select i1 %43, ptr @.str.52, ptr @.str.53
  %45 = tail call i32 @set_errcontext_domain(ptr noundef null) #15
  %46 = getelementptr inbounds nuw i8, ptr %0, i64 64
  %47 = load i32, ptr %46, align 8
  %48 = tail call i32 (ptr, ...) @errcontext_msg(ptr noundef nonnull @.str.54, i32 noundef %47, ptr noundef nonnull %44, ptr noundef nonnull %25, ptr noundef nonnull %42) #15
  ret void
}